
avr-example-atmega16.elf:     file format elf32-avr

Sections:
Idx Name          Size      VMA       LMA       File off  Algn
  0 .text         0000090c  00000000  00000000  00000074  2**1
                  CONTENTS, ALLOC, LOAD, READONLY, CODE
  1 .data         00000000  00800060  00800060  00000980  2**0
                  CONTENTS, ALLOC, LOAD, DATA
  2 .bss          0000007d  00800060  00800060  00000980  2**0
                  ALLOC
  3 .comment      00000030  00000000  00000000  00000980  2**0
                  CONTENTS, READONLY
  4 .note.gnu.avr.deviceinfo 0000003c  00000000  00000000  000009b0  2**2
                  CONTENTS, READONLY
  5 .debug_aranges 000000e8  00000000  00000000  000009ec  2**0
                  CONTENTS, READONLY, DEBUGGING
  6 .debug_info   00000e72  00000000  00000000  00000ad4  2**0
                  CONTENTS, READONLY, DEBUGGING
  7 .debug_abbrev 00000887  00000000  00000000  00001946  2**0
                  CONTENTS, READONLY, DEBUGGING
  8 .debug_line   00000931  00000000  00000000  000021cd  2**0
                  CONTENTS, READONLY, DEBUGGING
  9 .debug_frame  00000204  00000000  00000000  00002b00  2**2
                  CONTENTS, READONLY, DEBUGGING
 10 .debug_str    00000626  00000000  00000000  00002d04  2**0
                  CONTENTS, READONLY, DEBUGGING
 11 .debug_loc    000007a3  00000000  00000000  0000332a  2**0
                  CONTENTS, READONLY, DEBUGGING
 12 .debug_ranges 000000b8  00000000  00000000  00003acd  2**0
                  CONTENTS, READONLY, DEBUGGING

Disassembly of section .text:

00000000 <__vectors>:
   0:	0c 94 2a 00 	jmp	0x54	; 0x54 <__ctors_end>
   4:	0c 94 3c 00 	jmp	0x78	; 0x78 <__bad_interrupt>
   8:	0c 94 3c 00 	jmp	0x78	; 0x78 <__bad_interrupt>
   c:	0c 94 3c 00 	jmp	0x78	; 0x78 <__bad_interrupt>
  10:	0c 94 3c 00 	jmp	0x78	; 0x78 <__bad_interrupt>
  14:	0c 94 3c 00 	jmp	0x78	; 0x78 <__bad_interrupt>
  18:	0c 94 c5 00 	jmp	0x18a	; 0x18a <__vector_6>
  1c:	0c 94 3c 00 	jmp	0x78	; 0x78 <__bad_interrupt>
  20:	0c 94 3c 00 	jmp	0x78	; 0x78 <__bad_interrupt>
  24:	0c 94 3c 00 	jmp	0x78	; 0x78 <__bad_interrupt>
  28:	0c 94 3c 00 	jmp	0x78	; 0x78 <__bad_interrupt>
  2c:	0c 94 3c 00 	jmp	0x78	; 0x78 <__bad_interrupt>
  30:	0c 94 3c 00 	jmp	0x78	; 0x78 <__bad_interrupt>
  34:	0c 94 3c 00 	jmp	0x78	; 0x78 <__bad_interrupt>
  38:	0c 94 3c 00 	jmp	0x78	; 0x78 <__bad_interrupt>
  3c:	0c 94 3c 00 	jmp	0x78	; 0x78 <__bad_interrupt>
  40:	0c 94 3c 00 	jmp	0x78	; 0x78 <__bad_interrupt>
  44:	0c 94 3c 00 	jmp	0x78	; 0x78 <__bad_interrupt>
  48:	0c 94 3c 00 	jmp	0x78	; 0x78 <__bad_interrupt>
  4c:	0c 94 3c 00 	jmp	0x78	; 0x78 <__bad_interrupt>
  50:	0c 94 3c 00 	jmp	0x78	; 0x78 <__bad_interrupt>

00000054 <__ctors_end>:
  54:	11 24       	eor	r1, r1
  56:	1f be       	out	0x3f, r1	; 63
  58:	cf e5       	ldi	r28, 0x5F	; 95
  5a:	d4 e0       	ldi	r29, 0x04	; 4
  5c:	de bf       	out	0x3e, r29	; 62
  5e:	cd bf       	out	0x3d, r28	; 61

00000060 <__do_clear_bss>:
  60:	20 e0       	ldi	r18, 0x00	; 0
  62:	a0 e6       	ldi	r26, 0x60	; 96
  64:	b0 e0       	ldi	r27, 0x00	; 0
  66:	01 c0       	rjmp	.+2      	; 0x6a <.do_clear_bss_start>

00000068 <.do_clear_bss_loop>:
  68:	1d 92       	st	X+, r1

0000006a <.do_clear_bss_start>:
  6a:	ad 3d       	cpi	r26, 0xDD	; 221
  6c:	b2 07       	cpc	r27, r18
  6e:	e1 f7       	brne	.-8      	; 0x68 <.do_clear_bss_loop>
  70:	0e 94 60 00 	call	0xc0	; 0xc0 <main>
  74:	0c 94 84 04 	jmp	0x908	; 0x908 <_exit>

00000078 <__bad_interrupt>:
  78:	0c 94 00 00 	jmp	0	; 0x0 <__vectors>

0000007c <my_timer_callback>:
#include "timer_software.h"

void my_timer_callback(timer_software_handler_t handler)
{
	static uint8_t value = 0;
	if (value % 2)
  7c:	80 91 61 00 	lds	r24, 0x0061	; 0x800061 <value.1782>
  80:	80 ff       	sbrs	r24, 0
  82:	04 c0       	rjmp	.+8      	; 0x8c <my_timer_callback+0x10>
	{
		PORTB |= 1 << PB1;
  84:	88 b3       	in	r24, 0x18	; 24
  86:	82 60       	ori	r24, 0x02	; 2
  88:	88 bb       	out	0x18, r24	; 24
  8a:	03 c0       	rjmp	.+6      	; 0x92 <my_timer_callback+0x16>
	}
	else
	{
		PORTB &= ~(1 << PB1);
  8c:	88 b3       	in	r24, 0x18	; 24
  8e:	8d 7f       	andi	r24, 0xFD	; 253
  90:	88 bb       	out	0x18, r24	; 24
	}
	value++;
  92:	80 91 61 00 	lds	r24, 0x0061	; 0x800061 <value.1782>
  96:	8f 5f       	subi	r24, 0xFF	; 255
  98:	80 93 61 00 	sts	0x0061, r24	; 0x800061 <value.1782>
  9c:	08 95       	ret

0000009e <my_timer_callback_2>:
}

void my_timer_callback_2(timer_software_handler_t handler)
{
	static uint8_t value = 0;
	if (value % 2)
  9e:	80 91 60 00 	lds	r24, 0x0060	; 0x800060 <__DATA_REGION_ORIGIN__>
  a2:	80 ff       	sbrs	r24, 0
  a4:	04 c0       	rjmp	.+8      	; 0xae <my_timer_callback_2+0x10>
	{
		PORTB |= 1 << PB2;
  a6:	88 b3       	in	r24, 0x18	; 24
  a8:	84 60       	ori	r24, 0x04	; 4
  aa:	88 bb       	out	0x18, r24	; 24
  ac:	03 c0       	rjmp	.+6      	; 0xb4 <my_timer_callback_2+0x16>
	}
	else
	{
		PORTB &= ~(1 << PB2);
  ae:	88 b3       	in	r24, 0x18	; 24
  b0:	8b 7f       	andi	r24, 0xFB	; 251
  b2:	88 bb       	out	0x18, r24	; 24
	}
	value++;
  b4:	80 91 60 00 	lds	r24, 0x0060	; 0x800060 <__DATA_REGION_ORIGIN__>
  b8:	8f 5f       	subi	r24, 0xFF	; 255
  ba:	80 93 60 00 	sts	0x0060, r24	; 0x800060 <__DATA_REGION_ORIGIN__>
  be:	08 95       	ret

000000c0 <main>:
}

int main(void)
{	
	DDRB |= (1 << PB0) | (1 << PB1) | (1 << PB2) | (1 << PB3);	
  c0:	87 b3       	in	r24, 0x17	; 23
  c2:	8f 60       	ori	r24, 0x0F	; 15
  c4:	87 bb       	out	0x17, r24	; 23
	TIMER_SOFTWARE_init();
  c6:	0e 94 8e 02 	call	0x51c	; 0x51c <TIMER_SOFTWARE_init>
	TIMER_Init();
  ca:	0e 94 f9 00 	call	0x1f2	; 0x1f2 <TIMER_Init>
	sei();
  ce:	78 94       	sei
	
	timer_software_handler_t my_timer;
	timer_software_handler_t my_timer_2;
	timer_software_handler_t polling_timer;
	
	my_timer = TIMER_SOFTWARE_request_timer();	
  d0:	0e 94 54 02 	call	0x4a8	; 0x4a8 <TIMER_SOFTWARE_request_timer>
  d4:	7c 01       	movw	r14, r24
	if (my_timer < 0)
  d6:	99 23       	and	r25, r25
  d8:	0c f4       	brge	.+2      	; 0xdc <main+0x1c>
  da:	ff cf       	rjmp	.-2      	; 0xda <main+0x1a>
	{
		while(1);
	}
	my_timer_2 = TIMER_SOFTWARE_request_timer();
  dc:	0e 94 54 02 	call	0x4a8	; 0x4a8 <TIMER_SOFTWARE_request_timer>
  e0:	6c 01       	movw	r12, r24
	if (my_timer < 0)
  e2:	ff 20       	and	r15, r15
  e4:	0c f4       	brge	.+2      	; 0xe8 <main+0x28>
  e6:	ff cf       	rjmp	.-2      	; 0xe6 <main+0x26>
	{
		while(1);
	}
	
	polling_timer = TIMER_SOFTWARE_request_timer();	
  e8:	0e 94 54 02 	call	0x4a8	; 0x4a8 <TIMER_SOFTWARE_request_timer>
  ec:	ec 01       	movw	r28, r24
	if (polling_timer < 0)
  ee:	99 23       	and	r25, r25
  f0:	0c f4       	brge	.+2      	; 0xf4 <main+0x34>
  f2:	ff cf       	rjmp	.-2      	; 0xf2 <main+0x32>
	{
		while(1);
	}
	
	if (TIMER_SOFTWARE_configure_timer(my_timer, MODE_1, 5, 1) < 0)
  f4:	01 e0       	ldi	r16, 0x01	; 1
  f6:	25 e0       	ldi	r18, 0x05	; 5
  f8:	30 e0       	ldi	r19, 0x00	; 0
  fa:	40 e0       	ldi	r20, 0x00	; 0
  fc:	50 e0       	ldi	r21, 0x00	; 0
  fe:	61 e0       	ldi	r22, 0x01	; 1
 100:	c7 01       	movw	r24, r14
 102:	0e 94 c0 02 	call	0x580	; 0x580 <TIMER_SOFTWARE_configure_timer>
 106:	88 23       	and	r24, r24
 108:	0c f4       	brge	.+2      	; 0x10c <main+0x4c>
 10a:	ff cf       	rjmp	.-2      	; 0x10a <main+0x4a>
	{
		while(1);
	}
	if (TIMER_SOFTWARE_configure_timer(my_timer_2, MODE_1, 8, 1) < 0)
 10c:	01 e0       	ldi	r16, 0x01	; 1
 10e:	28 e0       	ldi	r18, 0x08	; 8
 110:	30 e0       	ldi	r19, 0x00	; 0
 112:	40 e0       	ldi	r20, 0x00	; 0
 114:	50 e0       	ldi	r21, 0x00	; 0
 116:	61 e0       	ldi	r22, 0x01	; 1
 118:	c6 01       	movw	r24, r12
 11a:	0e 94 c0 02 	call	0x580	; 0x580 <TIMER_SOFTWARE_configure_timer>
 11e:	88 23       	and	r24, r24
 120:	0c f4       	brge	.+2      	; 0x124 <main+0x64>
 122:	ff cf       	rjmp	.-2      	; 0x122 <main+0x62>
	{
		while(1);
	}	
	if (TIMER_SOFTWARE_configure_timer(polling_timer, MODE_1, 10, 1) < 0)
 124:	01 e0       	ldi	r16, 0x01	; 1
 126:	2a e0       	ldi	r18, 0x0A	; 10
 128:	30 e0       	ldi	r19, 0x00	; 0
 12a:	40 e0       	ldi	r20, 0x00	; 0
 12c:	50 e0       	ldi	r21, 0x00	; 0
 12e:	61 e0       	ldi	r22, 0x01	; 1
 130:	ce 01       	movw	r24, r28
 132:	0e 94 c0 02 	call	0x580	; 0x580 <TIMER_SOFTWARE_configure_timer>
 136:	88 23       	and	r24, r24
 138:	0c f4       	brge	.+2      	; 0x13c <main+0x7c>
 13a:	ff cf       	rjmp	.-2      	; 0x13a <main+0x7a>
	{
		while(1);
	}


	TIMER_SOFTWARE_set_callback(my_timer, my_timer_callback);	
 13c:	6e e3       	ldi	r22, 0x3E	; 62
 13e:	70 e0       	ldi	r23, 0x00	; 0
 140:	c7 01       	movw	r24, r14
 142:	0e 94 3d 04 	call	0x87a	; 0x87a <TIMER_SOFTWARE_set_callback>
	TIMER_SOFTWARE_set_callback(my_timer_2, my_timer_callback_2);
 146:	6f e4       	ldi	r22, 0x4F	; 79
 148:	70 e0       	ldi	r23, 0x00	; 0
 14a:	c6 01       	movw	r24, r12
 14c:	0e 94 3d 04 	call	0x87a	; 0x87a <TIMER_SOFTWARE_set_callback>
	TIMER_SOFTWARE_start_timer(my_timer);
 150:	c7 01       	movw	r24, r14
 152:	0e 94 00 04 	call	0x800	; 0x800 <TIMER_SOFTWARE_start_timer>
	TIMER_SOFTWARE_start_timer(my_timer_2);
 156:	c6 01       	movw	r24, r12
 158:	0e 94 00 04 	call	0x800	; 0x800 <TIMER_SOFTWARE_start_timer>
	TIMER_SOFTWARE_start_timer(polling_timer);
 15c:	ce 01       	movw	r24, r28
 15e:	0e 94 00 04 	call	0x800	; 0x800 <TIMER_SOFTWARE_start_timer>
	DDRB |= (1 << PB0) | (1 << PB1) | (1 << PB2) | (1 << PB3);	
	TIMER_SOFTWARE_init();
	TIMER_Init();
	sei();
	
	uint8_t another_value = 0;
 162:	10 e0       	ldi	r17, 0x00	; 0
	TIMER_SOFTWARE_start_timer(my_timer_2);
	TIMER_SOFTWARE_start_timer(polling_timer);
		
    while (1) 
    {
		if (TIMER_SOFTWARE_interrupt_pending(polling_timer))
 164:	ce 01       	movw	r24, r28
 166:	0e 94 61 04 	call	0x8c2	; 0x8c2 <TIMER_SOFTWARE_interrupt_pending>
 16a:	88 23       	and	r24, r24
 16c:	d9 f3       	breq	.-10     	; 0x164 <main+0xa4>
		{
			if (another_value % 2)
 16e:	10 ff       	sbrs	r17, 0
 170:	04 c0       	rjmp	.+8      	; 0x17a <main+0xba>
			{
				PORTB |= (1 << PB3);
 172:	88 b3       	in	r24, 0x18	; 24
 174:	88 60       	ori	r24, 0x08	; 8
 176:	88 bb       	out	0x18, r24	; 24
 178:	03 c0       	rjmp	.+6      	; 0x180 <main+0xc0>
			}
			else
			{
				PORTB &= ~(1 << PB3);
 17a:	88 b3       	in	r24, 0x18	; 24
 17c:	87 7f       	andi	r24, 0xF7	; 247
 17e:	88 bb       	out	0x18, r24	; 24
			}
			another_value++;			
 180:	1f 5f       	subi	r17, 0xFF	; 255
			TIMER_SOFTWARE_clear_interrupt(polling_timer);
 182:	ce 01       	movw	r24, r28
 184:	0e 94 71 04 	call	0x8e2	; 0x8e2 <TIMER_SOFTWARE_clear_interrupt>
 188:	ed cf       	rjmp	.-38     	; 0x164 <main+0xa4>

0000018a <__vector_6>:
#include "timer_software.h"

unsigned int n = 0;

ISR(TIMER1_COMPA_vect)
{
 18a:	1f 92       	push	r1
 18c:	0f 92       	push	r0
 18e:	0f b6       	in	r0, 0x3f	; 63
 190:	0f 92       	push	r0
 192:	11 24       	eor	r1, r1
 194:	2f 93       	push	r18
 196:	3f 93       	push	r19
 198:	4f 93       	push	r20
 19a:	5f 93       	push	r21
 19c:	6f 93       	push	r22
 19e:	7f 93       	push	r23
 1a0:	8f 93       	push	r24
 1a2:	9f 93       	push	r25
 1a4:	af 93       	push	r26
 1a6:	bf 93       	push	r27
 1a8:	ef 93       	push	r30
 1aa:	ff 93       	push	r31
	static uint8_t value = 0;
	if (value % 2)
 1ac:	80 91 62 00 	lds	r24, 0x0062	; 0x800062 <value.1785>
 1b0:	80 ff       	sbrs	r24, 0
 1b2:	04 c0       	rjmp	.+8      	; 0x1bc <__vector_6+0x32>
	{
		PORTB |= 1 << PB0;
 1b4:	88 b3       	in	r24, 0x18	; 24
 1b6:	81 60       	ori	r24, 0x01	; 1
 1b8:	88 bb       	out	0x18, r24	; 24
 1ba:	03 c0       	rjmp	.+6      	; 0x1c2 <__vector_6+0x38>
	}
	else
	{
		PORTB &= ~(1 << PB0);
 1bc:	88 b3       	in	r24, 0x18	; 24
 1be:	8e 7f       	andi	r24, 0xFE	; 254
 1c0:	88 bb       	out	0x18, r24	; 24
	}
	value++;
 1c2:	80 91 62 00 	lds	r24, 0x0062	; 0x800062 <value.1785>
 1c6:	8f 5f       	subi	r24, 0xFF	; 255
 1c8:	80 93 62 00 	sts	0x0062, r24	; 0x800062 <value.1785>
	TIMER_SOFTWARE_Task();
 1cc:	0e 94 03 01 	call	0x206	; 0x206 <TIMER_SOFTWARE_Task>
}
 1d0:	ff 91       	pop	r31
 1d2:	ef 91       	pop	r30
 1d4:	bf 91       	pop	r27
 1d6:	af 91       	pop	r26
 1d8:	9f 91       	pop	r25
 1da:	8f 91       	pop	r24
 1dc:	7f 91       	pop	r23
 1de:	6f 91       	pop	r22
 1e0:	5f 91       	pop	r21
 1e2:	4f 91       	pop	r20
 1e4:	3f 91       	pop	r19
 1e6:	2f 91       	pop	r18
 1e8:	0f 90       	pop	r0
 1ea:	0f be       	out	0x3f, r0	; 63
 1ec:	0f 90       	pop	r0
 1ee:	1f 90       	pop	r1
 1f0:	18 95       	reti

000001f2 <TIMER_Init>:

void TIMER_Init()
{
	OCR1AH = (TIMER_VALUE >> 8) & 0xFF;
 1f2:	87 e0       	ldi	r24, 0x07	; 7
 1f4:	8b bd       	out	0x2b, r24	; 43
	OCR1AL = (TIMER_VALUE & 0xFF);
 1f6:	83 e3       	ldi	r24, 0x33	; 51
 1f8:	8a bd       	out	0x2a, r24	; 42
	TCCR1A = 0;	
 1fa:	1f bc       	out	0x2f, r1	; 47
	TCCR1B = (1 << WGM12) | (1 << CS11);	
 1fc:	8a e0       	ldi	r24, 0x0A	; 10
 1fe:	8e bd       	out	0x2e, r24	; 46
	TIMSK = 1 << OCIE1A;
 200:	80 e1       	ldi	r24, 0x10	; 16
 202:	89 bf       	out	0x39, r24	; 57
 204:	08 95       	ret

00000206 <TIMER_SOFTWARE_Task>:
//! \return \b -1 for error 
//! \return \b 0 for success
//*****************************************************************************
void TIMER_SOFTWARE_reset_timer(timer_software_handler_t timer_handler)
{
	TIMER_RESET(timer_handler);
 206:	0f 93       	push	r16
 208:	1f 93       	push	r17
 20a:	cf 93       	push	r28
 20c:	c0 e0       	ldi	r28, 0x00	; 0
 20e:	45 c1       	rjmp	.+650    	; 0x49a <__stack+0x3b>
 210:	8c 2f       	mov	r24, r28
 212:	90 e0       	ldi	r25, 0x00	; 0
 214:	fc 01       	movw	r30, r24
 216:	ee 0f       	add	r30, r30
 218:	ff 1f       	adc	r31, r31
 21a:	e8 0f       	add	r30, r24
 21c:	f9 1f       	adc	r31, r25
 21e:	ee 0f       	add	r30, r30
 220:	ff 1f       	adc	r31, r31
 222:	ee 0f       	add	r30, r30
 224:	ff 1f       	adc	r31, r31
 226:	eb 59       	subi	r30, 0x9B	; 155
 228:	ff 4f       	sbci	r31, 0xFF	; 255
 22a:	20 81       	ld	r18, Z
 22c:	20 ff       	sbrs	r18, 0
 22e:	34 c1       	rjmp	.+616    	; 0x498 <__stack+0x39>
 230:	fc 01       	movw	r30, r24
 232:	ee 0f       	add	r30, r30
 234:	ff 1f       	adc	r31, r31
 236:	e8 0f       	add	r30, r24
 238:	f9 1f       	adc	r31, r25
 23a:	ee 0f       	add	r30, r30
 23c:	ff 1f       	adc	r31, r31
 23e:	ee 0f       	add	r30, r30
 240:	ff 1f       	adc	r31, r31
 242:	eb 59       	subi	r30, 0x9B	; 155
 244:	ff 4f       	sbci	r31, 0xFF	; 255
 246:	20 81       	ld	r18, Z
 248:	21 ff       	sbrs	r18, 1
 24a:	26 c1       	rjmp	.+588    	; 0x498 <__stack+0x39>
 24c:	fc 01       	movw	r30, r24
 24e:	ee 0f       	add	r30, r30
 250:	ff 1f       	adc	r31, r31
 252:	e8 0f       	add	r30, r24
 254:	f9 1f       	adc	r31, r25
 256:	ee 0f       	add	r30, r30
 258:	ff 1f       	adc	r31, r31
 25a:	ee 0f       	add	r30, r30
 25c:	ff 1f       	adc	r31, r31
 25e:	eb 59       	subi	r30, 0x9B	; 155
 260:	ff 4f       	sbci	r31, 0xFF	; 255
 262:	21 85       	ldd	r18, Z+9	; 0x09
 264:	21 fd       	sbrc	r18, 1
 266:	18 c1       	rjmp	.+560    	; 0x498 <__stack+0x39>
 268:	fc 01       	movw	r30, r24
 26a:	ee 0f       	add	r30, r30
 26c:	ff 1f       	adc	r31, r31
 26e:	e8 0f       	add	r30, r24
 270:	f9 1f       	adc	r31, r25
 272:	ee 0f       	add	r30, r30
 274:	ff 1f       	adc	r31, r31
 276:	ee 0f       	add	r30, r30
 278:	ff 1f       	adc	r31, r31
 27a:	eb 59       	subi	r30, 0x9B	; 155
 27c:	ff 4f       	sbci	r31, 0xFF	; 255
 27e:	21 85       	ldd	r18, Z+9	; 0x09
 280:	20 ff       	sbrs	r18, 0
 282:	0a c1       	rjmp	.+532    	; 0x498 <__stack+0x39>
 284:	fc 01       	movw	r30, r24
 286:	ee 0f       	add	r30, r30
 288:	ff 1f       	adc	r31, r31
 28a:	e8 0f       	add	r30, r24
 28c:	f9 1f       	adc	r31, r25
 28e:	ee 0f       	add	r30, r30
 290:	ff 1f       	adc	r31, r31
 292:	ee 0f       	add	r30, r30
 294:	ff 1f       	adc	r31, r31
 296:	eb 59       	subi	r30, 0x9B	; 155
 298:	ff 4f       	sbci	r31, 0xFF	; 255
 29a:	45 81       	ldd	r20, Z+5	; 0x05
 29c:	56 81       	ldd	r21, Z+6	; 0x06
 29e:	67 81       	ldd	r22, Z+7	; 0x07
 2a0:	70 85       	ldd	r23, Z+8	; 0x08
 2a2:	4f 5f       	subi	r20, 0xFF	; 255
 2a4:	5f 4f       	sbci	r21, 0xFF	; 255
 2a6:	6f 4f       	sbci	r22, 0xFF	; 255
 2a8:	7f 4f       	sbci	r23, 0xFF	; 255
 2aa:	45 83       	std	Z+5, r20	; 0x05
 2ac:	56 83       	std	Z+6, r21	; 0x06
 2ae:	67 83       	std	Z+7, r22	; 0x07
 2b0:	70 87       	std	Z+8, r23	; 0x08
 2b2:	45 81       	ldd	r20, Z+5	; 0x05
 2b4:	56 81       	ldd	r21, Z+6	; 0x06
 2b6:	67 81       	ldd	r22, Z+7	; 0x07
 2b8:	70 85       	ldd	r23, Z+8	; 0x08
 2ba:	4f 3f       	cpi	r20, 0xFF	; 255
 2bc:	5f 4f       	sbci	r21, 0xFF	; 255
 2be:	6f 4f       	sbci	r22, 0xFF	; 255
 2c0:	7f 4f       	sbci	r23, 0xFF	; 255
 2c2:	71 f4       	brne	.+28     	; 0x2e0 <TIMER_SOFTWARE_Task+0xda>
 2c4:	fc 01       	movw	r30, r24
 2c6:	ee 0f       	add	r30, r30
 2c8:	ff 1f       	adc	r31, r31
 2ca:	e8 0f       	add	r30, r24
 2cc:	f9 1f       	adc	r31, r25
 2ce:	ee 0f       	add	r30, r30
 2d0:	ff 1f       	adc	r31, r31
 2d2:	ee 0f       	add	r30, r30
 2d4:	ff 1f       	adc	r31, r31
 2d6:	eb 59       	subi	r30, 0x9B	; 155
 2d8:	ff 4f       	sbci	r31, 0xFF	; 255
 2da:	21 85       	ldd	r18, Z+9	; 0x09
 2dc:	28 60       	ori	r18, 0x08	; 8
 2de:	21 87       	std	Z+9, r18	; 0x09
 2e0:	fc 01       	movw	r30, r24
 2e2:	ee 0f       	add	r30, r30
 2e4:	ff 1f       	adc	r31, r31
 2e6:	e8 0f       	add	r30, r24
 2e8:	f9 1f       	adc	r31, r25
 2ea:	ee 0f       	add	r30, r30
 2ec:	ff 1f       	adc	r31, r31
 2ee:	ee 0f       	add	r30, r30
 2f0:	ff 1f       	adc	r31, r31
 2f2:	eb 59       	subi	r30, 0x9B	; 155
 2f4:	ff 4f       	sbci	r31, 0xFF	; 255
 2f6:	20 81       	ld	r18, Z
 2f8:	26 95       	lsr	r18
 2fa:	26 95       	lsr	r18
 2fc:	23 70       	andi	r18, 0x03	; 3
 2fe:	21 30       	cpi	r18, 0x01	; 1
 300:	09 f4       	brne	.+2      	; 0x304 <TIMER_SOFTWARE_Task+0xfe>
 302:	4b c0       	rjmp	.+150    	; 0x39a <TIMER_SOFTWARE_Task+0x194>
 304:	20 f0       	brcs	.+8      	; 0x30e <TIMER_SOFTWARE_Task+0x108>
 306:	22 30       	cpi	r18, 0x02	; 2
 308:	09 f4       	brne	.+2      	; 0x30c <TIMER_SOFTWARE_Task+0x106>
 30a:	8a c0       	rjmp	.+276    	; 0x420 <__DATA_REGION_LENGTH__+0x20>
 30c:	c5 c0       	rjmp	.+394    	; 0x498 <__stack+0x39>
 30e:	fc 01       	movw	r30, r24
 310:	ee 0f       	add	r30, r30
 312:	ff 1f       	adc	r31, r31
 314:	e8 0f       	add	r30, r24
 316:	f9 1f       	adc	r31, r25
 318:	ee 0f       	add	r30, r30
 31a:	ff 1f       	adc	r31, r31
 31c:	ee 0f       	add	r30, r30
 31e:	ff 1f       	adc	r31, r31
 320:	eb 59       	subi	r30, 0x9B	; 155
 322:	ff 4f       	sbci	r31, 0xFF	; 255
 324:	05 81       	ldd	r16, Z+5	; 0x05
 326:	16 81       	ldd	r17, Z+6	; 0x06
 328:	27 81       	ldd	r18, Z+7	; 0x07
 32a:	30 85       	ldd	r19, Z+8	; 0x08
 32c:	41 81       	ldd	r20, Z+1	; 0x01
 32e:	52 81       	ldd	r21, Z+2	; 0x02
 330:	63 81       	ldd	r22, Z+3	; 0x03
 332:	74 81       	ldd	r23, Z+4	; 0x04
 334:	04 17       	cp	r16, r20
 336:	15 07       	cpc	r17, r21
 338:	26 07       	cpc	r18, r22
 33a:	37 07       	cpc	r19, r23
 33c:	08 f4       	brcc	.+2      	; 0x340 <TIMER_SOFTWARE_Task+0x13a>
 33e:	ac c0       	rjmp	.+344    	; 0x498 <__stack+0x39>
 340:	fc 01       	movw	r30, r24
 342:	ee 0f       	add	r30, r30
 344:	ff 1f       	adc	r31, r31
 346:	e8 0f       	add	r30, r24
 348:	f9 1f       	adc	r31, r25
 34a:	ee 0f       	add	r30, r30
 34c:	ff 1f       	adc	r31, r31
 34e:	ee 0f       	add	r30, r30
 350:	ff 1f       	adc	r31, r31
 352:	eb 59       	subi	r30, 0x9B	; 155
 354:	ff 4f       	sbci	r31, 0xFF	; 255
 356:	21 85       	ldd	r18, Z+9	; 0x09
 358:	24 60       	ori	r18, 0x04	; 4
 35a:	21 87       	std	Z+9, r18	; 0x09
 35c:	21 85       	ldd	r18, Z+9	; 0x09
 35e:	2e 7f       	andi	r18, 0xFE	; 254
 360:	21 87       	std	Z+9, r18	; 0x09
 362:	15 82       	std	Z+5, r1	; 0x05
 364:	16 82       	std	Z+6, r1	; 0x06
 366:	17 82       	std	Z+7, r1	; 0x07
 368:	10 86       	std	Z+8, r1	; 0x08
 36a:	22 85       	ldd	r18, Z+10	; 0x0a
 36c:	33 85       	ldd	r19, Z+11	; 0x0b
 36e:	23 2b       	or	r18, r19
 370:	09 f4       	brne	.+2      	; 0x374 <TIMER_SOFTWARE_Task+0x16e>
 372:	92 c0       	rjmp	.+292    	; 0x498 <__stack+0x39>
 374:	fc 01       	movw	r30, r24
 376:	ee 0f       	add	r30, r30
 378:	ff 1f       	adc	r31, r31
 37a:	e8 0f       	add	r30, r24
 37c:	f9 1f       	adc	r31, r25
 37e:	ee 0f       	add	r30, r30
 380:	ff 1f       	adc	r31, r31
 382:	ee 0f       	add	r30, r30
 384:	ff 1f       	adc	r31, r31
 386:	eb 59       	subi	r30, 0x9B	; 155
 388:	ff 4f       	sbci	r31, 0xFF	; 255
 38a:	21 85       	ldd	r18, Z+9	; 0x09
 38c:	2b 7f       	andi	r18, 0xFB	; 251
 38e:	21 87       	std	Z+9, r18	; 0x09
 390:	02 84       	ldd	r0, Z+10	; 0x0a
 392:	f3 85       	ldd	r31, Z+11	; 0x0b
 394:	e0 2d       	mov	r30, r0
 396:	09 95       	icall
 398:	7f c0       	rjmp	.+254    	; 0x498 <__stack+0x39>
 39a:	fc 01       	movw	r30, r24
 39c:	ee 0f       	add	r30, r30
 39e:	ff 1f       	adc	r31, r31
 3a0:	e8 0f       	add	r30, r24
 3a2:	f9 1f       	adc	r31, r25
 3a4:	ee 0f       	add	r30, r30
 3a6:	ff 1f       	adc	r31, r31
 3a8:	ee 0f       	add	r30, r30
 3aa:	ff 1f       	adc	r31, r31
 3ac:	eb 59       	subi	r30, 0x9B	; 155
 3ae:	ff 4f       	sbci	r31, 0xFF	; 255
 3b0:	05 81       	ldd	r16, Z+5	; 0x05
 3b2:	16 81       	ldd	r17, Z+6	; 0x06
 3b4:	27 81       	ldd	r18, Z+7	; 0x07
 3b6:	30 85       	ldd	r19, Z+8	; 0x08
 3b8:	41 81       	ldd	r20, Z+1	; 0x01
 3ba:	52 81       	ldd	r21, Z+2	; 0x02
 3bc:	63 81       	ldd	r22, Z+3	; 0x03
 3be:	74 81       	ldd	r23, Z+4	; 0x04
 3c0:	04 17       	cp	r16, r20
 3c2:	15 07       	cpc	r17, r21
 3c4:	26 07       	cpc	r18, r22
 3c6:	37 07       	cpc	r19, r23
 3c8:	09 f0       	breq	.+2      	; 0x3cc <TIMER_SOFTWARE_Task+0x1c6>
 3ca:	66 c0       	rjmp	.+204    	; 0x498 <__stack+0x39>
 3cc:	fc 01       	movw	r30, r24
 3ce:	ee 0f       	add	r30, r30
 3d0:	ff 1f       	adc	r31, r31
 3d2:	e8 0f       	add	r30, r24
 3d4:	f9 1f       	adc	r31, r25
 3d6:	ee 0f       	add	r30, r30
 3d8:	ff 1f       	adc	r31, r31
 3da:	ee 0f       	add	r30, r30
 3dc:	ff 1f       	adc	r31, r31
 3de:	eb 59       	subi	r30, 0x9B	; 155
 3e0:	ff 4f       	sbci	r31, 0xFF	; 255
 3e2:	21 85       	ldd	r18, Z+9	; 0x09
 3e4:	24 60       	ori	r18, 0x04	; 4
 3e6:	21 87       	std	Z+9, r18	; 0x09
 3e8:	15 82       	std	Z+5, r1	; 0x05
 3ea:	16 82       	std	Z+6, r1	; 0x06
 3ec:	17 82       	std	Z+7, r1	; 0x07
 3ee:	10 86       	std	Z+8, r1	; 0x08
 3f0:	22 85       	ldd	r18, Z+10	; 0x0a
 3f2:	33 85       	ldd	r19, Z+11	; 0x0b
 3f4:	23 2b       	or	r18, r19
 3f6:	09 f4       	brne	.+2      	; 0x3fa <TIMER_SOFTWARE_Task+0x1f4>
 3f8:	4f c0       	rjmp	.+158    	; 0x498 <__stack+0x39>
 3fa:	fc 01       	movw	r30, r24
 3fc:	ee 0f       	add	r30, r30
 3fe:	ff 1f       	adc	r31, r31
 400:	e8 0f       	add	r30, r24
 402:	f9 1f       	adc	r31, r25
 404:	ee 0f       	add	r30, r30
 406:	ff 1f       	adc	r31, r31
 408:	ee 0f       	add	r30, r30
 40a:	ff 1f       	adc	r31, r31
 40c:	eb 59       	subi	r30, 0x9B	; 155
 40e:	ff 4f       	sbci	r31, 0xFF	; 255
 410:	21 85       	ldd	r18, Z+9	; 0x09
 412:	2b 7f       	andi	r18, 0xFB	; 251
 414:	21 87       	std	Z+9, r18	; 0x09
 416:	02 84       	ldd	r0, Z+10	; 0x0a
 418:	f3 85       	ldd	r31, Z+11	; 0x0b
 41a:	e0 2d       	mov	r30, r0
 41c:	09 95       	icall
 41e:	3c c0       	rjmp	.+120    	; 0x498 <__stack+0x39>
 420:	fc 01       	movw	r30, r24
 422:	ee 0f       	add	r30, r30
 424:	ff 1f       	adc	r31, r31
 426:	e8 0f       	add	r30, r24
 428:	f9 1f       	adc	r31, r25
 42a:	ee 0f       	add	r30, r30
 42c:	ff 1f       	adc	r31, r31
 42e:	ee 0f       	add	r30, r30
 430:	ff 1f       	adc	r31, r31
 432:	eb 59       	subi	r30, 0x9B	; 155
 434:	ff 4f       	sbci	r31, 0xFF	; 255
 436:	05 81       	ldd	r16, Z+5	; 0x05
 438:	16 81       	ldd	r17, Z+6	; 0x06
 43a:	27 81       	ldd	r18, Z+7	; 0x07
 43c:	30 85       	ldd	r19, Z+8	; 0x08
 43e:	41 81       	ldd	r20, Z+1	; 0x01
 440:	52 81       	ldd	r21, Z+2	; 0x02
 442:	63 81       	ldd	r22, Z+3	; 0x03
 444:	74 81       	ldd	r23, Z+4	; 0x04
 446:	04 17       	cp	r16, r20
 448:	15 07       	cpc	r17, r21
 44a:	26 07       	cpc	r18, r22
 44c:	37 07       	cpc	r19, r23
 44e:	21 f5       	brne	.+72     	; 0x498 <__stack+0x39>
 450:	fc 01       	movw	r30, r24
 452:	ee 0f       	add	r30, r30
 454:	ff 1f       	adc	r31, r31
 456:	e8 0f       	add	r30, r24
 458:	f9 1f       	adc	r31, r25
 45a:	ee 0f       	add	r30, r30
 45c:	ff 1f       	adc	r31, r31
 45e:	ee 0f       	add	r30, r30
 460:	ff 1f       	adc	r31, r31
 462:	eb 59       	subi	r30, 0x9B	; 155
 464:	ff 4f       	sbci	r31, 0xFF	; 255
 466:	21 85       	ldd	r18, Z+9	; 0x09
 468:	24 60       	ori	r18, 0x04	; 4
 46a:	21 87       	std	Z+9, r18	; 0x09
 46c:	22 85       	ldd	r18, Z+10	; 0x0a
 46e:	33 85       	ldd	r19, Z+11	; 0x0b
 470:	23 2b       	or	r18, r19
 472:	91 f0       	breq	.+36     	; 0x498 <__stack+0x39>
 474:	fc 01       	movw	r30, r24
 476:	ee 0f       	add	r30, r30
 478:	ff 1f       	adc	r31, r31
 47a:	e8 0f       	add	r30, r24
 47c:	f9 1f       	adc	r31, r25
 47e:	ee 0f       	add	r30, r30
 480:	ff 1f       	adc	r31, r31
 482:	ee 0f       	add	r30, r30
 484:	ff 1f       	adc	r31, r31
 486:	eb 59       	subi	r30, 0x9B	; 155
 488:	ff 4f       	sbci	r31, 0xFF	; 255
 48a:	21 85       	ldd	r18, Z+9	; 0x09
 48c:	2b 7f       	andi	r18, 0xFB	; 251
 48e:	21 87       	std	Z+9, r18	; 0x09
 490:	02 84       	ldd	r0, Z+10	; 0x0a
 492:	f3 85       	ldd	r31, Z+11	; 0x0b
 494:	e0 2d       	mov	r30, r0
 496:	09 95       	icall
 498:	cf 5f       	subi	r28, 0xFF	; 255
 49a:	ca 30       	cpi	r28, 0x0A	; 10
 49c:	08 f4       	brcc	.+2      	; 0x4a0 <__stack+0x41>
 49e:	b8 ce       	rjmp	.-656    	; 0x210 <TIMER_SOFTWARE_Task+0xa>
 4a0:	cf 91       	pop	r28
 4a2:	1f 91       	pop	r17
 4a4:	0f 91       	pop	r16
 4a6:	08 95       	ret

000004a8 <TIMER_SOFTWARE_request_timer>:
 4a8:	80 e0       	ldi	r24, 0x00	; 0
 4aa:	11 c0       	rjmp	.+34     	; 0x4ce <TIMER_SOFTWARE_request_timer+0x26>
 4ac:	28 2f       	mov	r18, r24
 4ae:	30 e0       	ldi	r19, 0x00	; 0
 4b0:	f9 01       	movw	r30, r18
 4b2:	ee 0f       	add	r30, r30
 4b4:	ff 1f       	adc	r31, r31
 4b6:	e2 0f       	add	r30, r18
 4b8:	f3 1f       	adc	r31, r19
 4ba:	ee 0f       	add	r30, r30
 4bc:	ff 1f       	adc	r31, r31
 4be:	ee 0f       	add	r30, r30
 4c0:	ff 1f       	adc	r31, r31
 4c2:	eb 59       	subi	r30, 0x9B	; 155
 4c4:	ff 4f       	sbci	r31, 0xFF	; 255
 4c6:	90 81       	ld	r25, Z
 4c8:	90 ff       	sbrs	r25, 0
 4ca:	05 c0       	rjmp	.+10     	; 0x4d6 <TIMER_SOFTWARE_request_timer+0x2e>
 4cc:	8f 5f       	subi	r24, 0xFF	; 255
 4ce:	8a 30       	cpi	r24, 0x0A	; 10
 4d0:	68 f3       	brcs	.-38     	; 0x4ac <TIMER_SOFTWARE_request_timer+0x4>
 4d2:	90 e0       	ldi	r25, 0x00	; 0
 4d4:	01 c0       	rjmp	.+2      	; 0x4d8 <TIMER_SOFTWARE_request_timer+0x30>
 4d6:	91 e0       	ldi	r25, 0x01	; 1
 4d8:	99 23       	and	r25, r25
 4da:	e9 f0       	breq	.+58     	; 0x516 <TIMER_SOFTWARE_request_timer+0x6e>
 4dc:	90 e0       	ldi	r25, 0x00	; 0
 4de:	fc 01       	movw	r30, r24
 4e0:	ee 0f       	add	r30, r30
 4e2:	ff 1f       	adc	r31, r31
 4e4:	e8 0f       	add	r30, r24
 4e6:	f9 1f       	adc	r31, r25
 4e8:	ee 0f       	add	r30, r30
 4ea:	ff 1f       	adc	r31, r31
 4ec:	ee 0f       	add	r30, r30
 4ee:	ff 1f       	adc	r31, r31
 4f0:	eb 59       	subi	r30, 0x9B	; 155
 4f2:	ff 4f       	sbci	r31, 0xFF	; 255
 4f4:	10 82       	st	Z, r1
 4f6:	11 82       	std	Z+1, r1	; 0x01
 4f8:	12 82       	std	Z+2, r1	; 0x02
 4fa:	13 82       	std	Z+3, r1	; 0x03
 4fc:	14 82       	std	Z+4, r1	; 0x04
 4fe:	15 82       	std	Z+5, r1	; 0x05
 500:	16 82       	std	Z+6, r1	; 0x06
 502:	17 82       	std	Z+7, r1	; 0x07
 504:	10 86       	std	Z+8, r1	; 0x08
 506:	11 86       	std	Z+9, r1	; 0x09
 508:	21 85       	ldd	r18, Z+9	; 0x09
 50a:	22 60       	ori	r18, 0x02	; 2
 50c:	21 87       	std	Z+9, r18	; 0x09
 50e:	20 81       	ld	r18, Z
 510:	21 60       	ori	r18, 0x01	; 1
 512:	20 83       	st	Z, r18
 514:	08 95       	ret
 516:	8f ef       	ldi	r24, 0xFF	; 255
 518:	9f ef       	ldi	r25, 0xFF	; 255
 51a:	08 95       	ret

0000051c <TIMER_SOFTWARE_init>:
 51c:	20 e0       	ldi	r18, 0x00	; 0
 51e:	27 c0       	rjmp	.+78     	; 0x56e <TIMER_SOFTWARE_init+0x52>
 520:	82 2f       	mov	r24, r18
 522:	90 e0       	ldi	r25, 0x00	; 0
 524:	ac 01       	movw	r20, r24
 526:	44 0f       	add	r20, r20
 528:	55 1f       	adc	r21, r21
 52a:	fa 01       	movw	r30, r20
 52c:	e8 0f       	add	r30, r24
 52e:	f9 1f       	adc	r31, r25
 530:	ee 0f       	add	r30, r30
 532:	ff 1f       	adc	r31, r31
 534:	ee 0f       	add	r30, r30
 536:	ff 1f       	adc	r31, r31
 538:	eb 59       	subi	r30, 0x9B	; 155
 53a:	ff 4f       	sbci	r31, 0xFF	; 255
 53c:	10 82       	st	Z, r1
 53e:	11 82       	std	Z+1, r1	; 0x01
 540:	12 82       	std	Z+2, r1	; 0x02
 542:	13 82       	std	Z+3, r1	; 0x03
 544:	14 82       	std	Z+4, r1	; 0x04
 546:	15 82       	std	Z+5, r1	; 0x05
 548:	16 82       	std	Z+6, r1	; 0x06
 54a:	17 82       	std	Z+7, r1	; 0x07
 54c:	10 86       	std	Z+8, r1	; 0x08
 54e:	11 86       	std	Z+9, r1	; 0x09
 550:	13 86       	std	Z+11, r1	; 0x0b
 552:	12 86       	std	Z+10, r1	; 0x0a
 554:	31 85       	ldd	r19, Z+9	; 0x09
 556:	32 60       	ori	r19, 0x02	; 2
 558:	fa 01       	movw	r30, r20
 55a:	e8 0f       	add	r30, r24
 55c:	f9 1f       	adc	r31, r25
 55e:	ee 0f       	add	r30, r30
 560:	ff 1f       	adc	r31, r31
 562:	ee 0f       	add	r30, r30
 564:	ff 1f       	adc	r31, r31
 566:	eb 59       	subi	r30, 0x9B	; 155
 568:	ff 4f       	sbci	r31, 0xFF	; 255
 56a:	31 87       	std	Z+9, r19	; 0x09
 56c:	2f 5f       	subi	r18, 0xFF	; 255
 56e:	2a 30       	cpi	r18, 0x0A	; 10
 570:	b8 f2       	brcs	.-82     	; 0x520 <TIMER_SOFTWARE_init+0x4>
 572:	0e 94 54 02 	call	0x4a8	; 0x4a8 <TIMER_SOFTWARE_request_timer>
 576:	90 93 64 00 	sts	0x0064, r25	; 0x800064 <wait_timer+0x1>
 57a:	80 93 63 00 	sts	0x0063, r24	; 0x800063 <wait_timer>
 57e:	08 95       	ret

00000580 <TIMER_SOFTWARE_configure_timer>:
 580:	0f 93       	push	r16
 582:	fc 01       	movw	r30, r24
 584:	ee 0f       	add	r30, r30
 586:	ff 1f       	adc	r31, r31
 588:	e8 0f       	add	r30, r24
 58a:	f9 1f       	adc	r31, r25
 58c:	ee 0f       	add	r30, r30
 58e:	ff 1f       	adc	r31, r31
 590:	ee 0f       	add	r30, r30
 592:	ff 1f       	adc	r31, r31
 594:	eb 59       	subi	r30, 0x9B	; 155
 596:	ff 4f       	sbci	r31, 0xFF	; 255
 598:	70 81       	ld	r23, Z
 59a:	70 ff       	sbrs	r23, 0
 59c:	f3 c0       	rjmp	.+486    	; 0x784 <TIMER_SOFTWARE_configure_timer+0x204>
 59e:	fc 01       	movw	r30, r24
 5a0:	ee 0f       	add	r30, r30
 5a2:	ff 1f       	adc	r31, r31
 5a4:	e8 0f       	add	r30, r24
 5a6:	f9 1f       	adc	r31, r25
 5a8:	ee 0f       	add	r30, r30
 5aa:	ff 1f       	adc	r31, r31
 5ac:	ee 0f       	add	r30, r30
 5ae:	ff 1f       	adc	r31, r31
 5b0:	eb 59       	subi	r30, 0x9B	; 155
 5b2:	ff 4f       	sbci	r31, 0xFF	; 255
 5b4:	71 85       	ldd	r23, Z+9	; 0x09
 5b6:	7d 7f       	andi	r23, 0xFD	; 253
 5b8:	71 87       	std	Z+9, r23	; 0x09
 5ba:	61 30       	cpi	r22, 0x01	; 1
 5bc:	c9 f1       	breq	.+114    	; 0x630 <TIMER_SOFTWARE_configure_timer+0xb0>
 5be:	38 f0       	brcs	.+14     	; 0x5ce <TIMER_SOFTWARE_configure_timer+0x4e>
 5c0:	62 30       	cpi	r22, 0x02	; 2
 5c2:	09 f4       	brne	.+2      	; 0x5c6 <TIMER_SOFTWARE_configure_timer+0x46>
 5c4:	67 c0       	rjmp	.+206    	; 0x694 <TIMER_SOFTWARE_configure_timer+0x114>
 5c6:	63 30       	cpi	r22, 0x03	; 3
 5c8:	09 f4       	brne	.+2      	; 0x5cc <TIMER_SOFTWARE_configure_timer+0x4c>
 5ca:	96 c0       	rjmp	.+300    	; 0x6f8 <TIMER_SOFTWARE_configure_timer+0x178>
 5cc:	a8 c0       	rjmp	.+336    	; 0x71e <TIMER_SOFTWARE_configure_timer+0x19e>
 5ce:	fc 01       	movw	r30, r24
 5d0:	ee 0f       	add	r30, r30
 5d2:	ff 1f       	adc	r31, r31
 5d4:	e8 0f       	add	r30, r24
 5d6:	f9 1f       	adc	r31, r25
 5d8:	ee 0f       	add	r30, r30
 5da:	ff 1f       	adc	r31, r31
 5dc:	ee 0f       	add	r30, r30
 5de:	ff 1f       	adc	r31, r31
 5e0:	eb 59       	subi	r30, 0x9B	; 155
 5e2:	ff 4f       	sbci	r31, 0xFF	; 255
 5e4:	60 81       	ld	r22, Z
 5e6:	63 7f       	andi	r22, 0xF3	; 243
 5e8:	60 83       	st	Z, r22
 5ea:	22 30       	cpi	r18, 0x02	; 2
 5ec:	31 05       	cpc	r19, r1
 5ee:	41 05       	cpc	r20, r1
 5f0:	51 05       	cpc	r21, r1
 5f2:	70 f4       	brcc	.+28     	; 0x610 <TIMER_SOFTWARE_configure_timer+0x90>
 5f4:	fc 01       	movw	r30, r24
 5f6:	ee 0f       	add	r30, r30
 5f8:	ff 1f       	adc	r31, r31
 5fa:	e8 0f       	add	r30, r24
 5fc:	f9 1f       	adc	r31, r25
 5fe:	ee 0f       	add	r30, r30
 600:	ff 1f       	adc	r31, r31
 602:	ee 0f       	add	r30, r30
 604:	ff 1f       	adc	r31, r31
 606:	eb 59       	subi	r30, 0x9B	; 155
 608:	ff 4f       	sbci	r31, 0xFF	; 255
 60a:	61 85       	ldd	r22, Z+9	; 0x09
 60c:	62 60       	ori	r22, 0x02	; 2
 60e:	61 87       	std	Z+9, r22	; 0x09
 610:	fc 01       	movw	r30, r24
 612:	ee 0f       	add	r30, r30
 614:	ff 1f       	adc	r31, r31
 616:	e8 0f       	add	r30, r24
 618:	f9 1f       	adc	r31, r25
 61a:	ee 0f       	add	r30, r30
 61c:	ff 1f       	adc	r31, r31
 61e:	ee 0f       	add	r30, r30
 620:	ff 1f       	adc	r31, r31
 622:	eb 59       	subi	r30, 0x9B	; 155
 624:	ff 4f       	sbci	r31, 0xFF	; 255
 626:	21 83       	std	Z+1, r18	; 0x01
 628:	32 83       	std	Z+2, r19	; 0x02
 62a:	43 83       	std	Z+3, r20	; 0x03
 62c:	54 83       	std	Z+4, r21	; 0x04
 62e:	88 c0       	rjmp	.+272    	; 0x740 <TIMER_SOFTWARE_configure_timer+0x1c0>
 630:	fc 01       	movw	r30, r24
 632:	ee 0f       	add	r30, r30
 634:	ff 1f       	adc	r31, r31
 636:	e8 0f       	add	r30, r24
 638:	f9 1f       	adc	r31, r25
 63a:	ee 0f       	add	r30, r30
 63c:	ff 1f       	adc	r31, r31
 63e:	ee 0f       	add	r30, r30
 640:	ff 1f       	adc	r31, r31
 642:	eb 59       	subi	r30, 0x9B	; 155
 644:	ff 4f       	sbci	r31, 0xFF	; 255
 646:	60 81       	ld	r22, Z
 648:	63 7f       	andi	r22, 0xF3	; 243
 64a:	64 60       	ori	r22, 0x04	; 4
 64c:	60 83       	st	Z, r22
 64e:	22 30       	cpi	r18, 0x02	; 2
 650:	31 05       	cpc	r19, r1
 652:	41 05       	cpc	r20, r1
 654:	51 05       	cpc	r21, r1
 656:	70 f4       	brcc	.+28     	; 0x674 <TIMER_SOFTWARE_configure_timer+0xf4>
 658:	fc 01       	movw	r30, r24
 65a:	ee 0f       	add	r30, r30
 65c:	ff 1f       	adc	r31, r31
 65e:	e8 0f       	add	r30, r24
 660:	f9 1f       	adc	r31, r25
 662:	ee 0f       	add	r30, r30
 664:	ff 1f       	adc	r31, r31
 666:	ee 0f       	add	r30, r30
 668:	ff 1f       	adc	r31, r31
 66a:	eb 59       	subi	r30, 0x9B	; 155
 66c:	ff 4f       	sbci	r31, 0xFF	; 255
 66e:	61 85       	ldd	r22, Z+9	; 0x09
 670:	62 60       	ori	r22, 0x02	; 2
 672:	61 87       	std	Z+9, r22	; 0x09
 674:	fc 01       	movw	r30, r24
 676:	ee 0f       	add	r30, r30
 678:	ff 1f       	adc	r31, r31
 67a:	e8 0f       	add	r30, r24
 67c:	f9 1f       	adc	r31, r25
 67e:	ee 0f       	add	r30, r30
 680:	ff 1f       	adc	r31, r31
 682:	ee 0f       	add	r30, r30
 684:	ff 1f       	adc	r31, r31
 686:	eb 59       	subi	r30, 0x9B	; 155
 688:	ff 4f       	sbci	r31, 0xFF	; 255
 68a:	21 83       	std	Z+1, r18	; 0x01
 68c:	32 83       	std	Z+2, r19	; 0x02
 68e:	43 83       	std	Z+3, r20	; 0x03
 690:	54 83       	std	Z+4, r21	; 0x04
 692:	56 c0       	rjmp	.+172    	; 0x740 <TIMER_SOFTWARE_configure_timer+0x1c0>
 694:	fc 01       	movw	r30, r24
 696:	ee 0f       	add	r30, r30
 698:	ff 1f       	adc	r31, r31
 69a:	e8 0f       	add	r30, r24
 69c:	f9 1f       	adc	r31, r25
 69e:	ee 0f       	add	r30, r30
 6a0:	ff 1f       	adc	r31, r31
 6a2:	ee 0f       	add	r30, r30
 6a4:	ff 1f       	adc	r31, r31
 6a6:	eb 59       	subi	r30, 0x9B	; 155
 6a8:	ff 4f       	sbci	r31, 0xFF	; 255
 6aa:	60 81       	ld	r22, Z
 6ac:	63 7f       	andi	r22, 0xF3	; 243
 6ae:	68 60       	ori	r22, 0x08	; 8
 6b0:	60 83       	st	Z, r22
 6b2:	22 30       	cpi	r18, 0x02	; 2
 6b4:	31 05       	cpc	r19, r1
 6b6:	41 05       	cpc	r20, r1
 6b8:	51 05       	cpc	r21, r1
 6ba:	70 f4       	brcc	.+28     	; 0x6d8 <TIMER_SOFTWARE_configure_timer+0x158>
 6bc:	fc 01       	movw	r30, r24
 6be:	ee 0f       	add	r30, r30
 6c0:	ff 1f       	adc	r31, r31
 6c2:	e8 0f       	add	r30, r24
 6c4:	f9 1f       	adc	r31, r25
 6c6:	ee 0f       	add	r30, r30
 6c8:	ff 1f       	adc	r31, r31
 6ca:	ee 0f       	add	r30, r30
 6cc:	ff 1f       	adc	r31, r31
 6ce:	eb 59       	subi	r30, 0x9B	; 155
 6d0:	ff 4f       	sbci	r31, 0xFF	; 255
 6d2:	61 85       	ldd	r22, Z+9	; 0x09
 6d4:	62 60       	ori	r22, 0x02	; 2
 6d6:	61 87       	std	Z+9, r22	; 0x09
 6d8:	fc 01       	movw	r30, r24
 6da:	ee 0f       	add	r30, r30
 6dc:	ff 1f       	adc	r31, r31
 6de:	e8 0f       	add	r30, r24
 6e0:	f9 1f       	adc	r31, r25
 6e2:	ee 0f       	add	r30, r30
 6e4:	ff 1f       	adc	r31, r31
 6e6:	ee 0f       	add	r30, r30
 6e8:	ff 1f       	adc	r31, r31
 6ea:	eb 59       	subi	r30, 0x9B	; 155
 6ec:	ff 4f       	sbci	r31, 0xFF	; 255
 6ee:	21 83       	std	Z+1, r18	; 0x01
 6f0:	32 83       	std	Z+2, r19	; 0x02
 6f2:	43 83       	std	Z+3, r20	; 0x03
 6f4:	54 83       	std	Z+4, r21	; 0x04
 6f6:	24 c0       	rjmp	.+72     	; 0x740 <TIMER_SOFTWARE_configure_timer+0x1c0>
 6f8:	fc 01       	movw	r30, r24
 6fa:	ee 0f       	add	r30, r30
 6fc:	ff 1f       	adc	r31, r31
 6fe:	e8 0f       	add	r30, r24
 700:	f9 1f       	adc	r31, r25
 702:	ee 0f       	add	r30, r30
 704:	ff 1f       	adc	r31, r31
 706:	ee 0f       	add	r30, r30
 708:	ff 1f       	adc	r31, r31
 70a:	eb 59       	subi	r30, 0x9B	; 155
 70c:	ff 4f       	sbci	r31, 0xFF	; 255
 70e:	20 81       	ld	r18, Z
 710:	2c 60       	ori	r18, 0x0C	; 12
 712:	20 83       	st	Z, r18
 714:	11 82       	std	Z+1, r1	; 0x01
 716:	12 82       	std	Z+2, r1	; 0x02
 718:	13 82       	std	Z+3, r1	; 0x03
 71a:	14 82       	std	Z+4, r1	; 0x04
 71c:	11 c0       	rjmp	.+34     	; 0x740 <TIMER_SOFTWARE_configure_timer+0x1c0>
 71e:	fc 01       	movw	r30, r24
 720:	ee 0f       	add	r30, r30
 722:	ff 1f       	adc	r31, r31
 724:	e8 0f       	add	r30, r24
 726:	f9 1f       	adc	r31, r25
 728:	ee 0f       	add	r30, r30
 72a:	ff 1f       	adc	r31, r31
 72c:	ee 0f       	add	r30, r30
 72e:	ff 1f       	adc	r31, r31
 730:	eb 59       	subi	r30, 0x9B	; 155
 732:	ff 4f       	sbci	r31, 0xFF	; 255
 734:	20 81       	ld	r18, Z
 736:	2c 60       	ori	r18, 0x0C	; 12
 738:	20 83       	st	Z, r18
 73a:	21 85       	ldd	r18, Z+9	; 0x09
 73c:	22 60       	ori	r18, 0x02	; 2
 73e:	21 87       	std	Z+9, r18	; 0x09
 740:	fc 01       	movw	r30, r24
 742:	ee 0f       	add	r30, r30
 744:	ff 1f       	adc	r31, r31
 746:	e8 0f       	add	r30, r24
 748:	f9 1f       	adc	r31, r25
 74a:	ee 0f       	add	r30, r30
 74c:	ff 1f       	adc	r31, r31
 74e:	ee 0f       	add	r30, r30
 750:	ff 1f       	adc	r31, r31
 752:	eb 59       	subi	r30, 0x9B	; 155
 754:	ff 4f       	sbci	r31, 0xFF	; 255
 756:	21 85       	ldd	r18, Z+9	; 0x09
 758:	21 fd       	sbrc	r18, 1
 75a:	16 c0       	rjmp	.+44     	; 0x788 <TIMER_SOFTWARE_configure_timer+0x208>
 75c:	00 23       	and	r16, r16
 75e:	b1 f0       	breq	.+44     	; 0x78c <TIMER_SOFTWARE_configure_timer+0x20c>
 760:	fc 01       	movw	r30, r24
 762:	ee 0f       	add	r30, r30
 764:	ff 1f       	adc	r31, r31
 766:	df 01       	movw	r26, r30
 768:	a8 0f       	add	r26, r24
 76a:	b9 1f       	adc	r27, r25
 76c:	aa 0f       	add	r26, r26
 76e:	bb 1f       	adc	r27, r27
 770:	aa 0f       	add	r26, r26
 772:	bb 1f       	adc	r27, r27
 774:	ab 59       	subi	r26, 0x9B	; 155
 776:	bf 4f       	sbci	r27, 0xFF	; 255
 778:	2c 91       	ld	r18, X
 77a:	22 60       	ori	r18, 0x02	; 2
 77c:	fd 01       	movw	r30, r26
 77e:	20 83       	st	Z, r18
 780:	80 e0       	ldi	r24, 0x00	; 0
 782:	05 c0       	rjmp	.+10     	; 0x78e <TIMER_SOFTWARE_configure_timer+0x20e>
 784:	8f ef       	ldi	r24, 0xFF	; 255
 786:	03 c0       	rjmp	.+6      	; 0x78e <TIMER_SOFTWARE_configure_timer+0x20e>
 788:	8f ef       	ldi	r24, 0xFF	; 255
 78a:	01 c0       	rjmp	.+2      	; 0x78e <TIMER_SOFTWARE_configure_timer+0x20e>
 78c:	80 e0       	ldi	r24, 0x00	; 0
 78e:	0f 91       	pop	r16
 790:	08 95       	ret

00000792 <TIMER_SOFTWARE_enable_timer>:
 792:	8b 30       	cpi	r24, 0x0B	; 11
 794:	91 05       	cpc	r25, r1
 796:	74 f5       	brge	.+92     	; 0x7f4 <TIMER_SOFTWARE_enable_timer+0x62>
 798:	fc 01       	movw	r30, r24
 79a:	ee 0f       	add	r30, r30
 79c:	ff 1f       	adc	r31, r31
 79e:	e8 0f       	add	r30, r24
 7a0:	f9 1f       	adc	r31, r25
 7a2:	ee 0f       	add	r30, r30
 7a4:	ff 1f       	adc	r31, r31
 7a6:	ee 0f       	add	r30, r30
 7a8:	ff 1f       	adc	r31, r31
 7aa:	eb 59       	subi	r30, 0x9B	; 155
 7ac:	ff 4f       	sbci	r31, 0xFF	; 255
 7ae:	20 81       	ld	r18, Z
 7b0:	20 ff       	sbrs	r18, 0
 7b2:	22 c0       	rjmp	.+68     	; 0x7f8 <TIMER_SOFTWARE_enable_timer+0x66>
 7b4:	fc 01       	movw	r30, r24
 7b6:	ee 0f       	add	r30, r30
 7b8:	ff 1f       	adc	r31, r31
 7ba:	e8 0f       	add	r30, r24
 7bc:	f9 1f       	adc	r31, r25
 7be:	ee 0f       	add	r30, r30
 7c0:	ff 1f       	adc	r31, r31
 7c2:	ee 0f       	add	r30, r30
 7c4:	ff 1f       	adc	r31, r31
 7c6:	eb 59       	subi	r30, 0x9B	; 155
 7c8:	ff 4f       	sbci	r31, 0xFF	; 255
 7ca:	21 85       	ldd	r18, Z+9	; 0x09
 7cc:	21 fd       	sbrc	r18, 1
 7ce:	16 c0       	rjmp	.+44     	; 0x7fc <TIMER_SOFTWARE_enable_timer+0x6a>
 7d0:	fc 01       	movw	r30, r24
 7d2:	ee 0f       	add	r30, r30
 7d4:	ff 1f       	adc	r31, r31
 7d6:	df 01       	movw	r26, r30
 7d8:	a8 0f       	add	r26, r24
 7da:	b9 1f       	adc	r27, r25
 7dc:	aa 0f       	add	r26, r26
 7de:	bb 1f       	adc	r27, r27
 7e0:	aa 0f       	add	r26, r26
 7e2:	bb 1f       	adc	r27, r27
 7e4:	ab 59       	subi	r26, 0x9B	; 155
 7e6:	bf 4f       	sbci	r27, 0xFF	; 255
 7e8:	2c 91       	ld	r18, X
 7ea:	22 60       	ori	r18, 0x02	; 2
 7ec:	fd 01       	movw	r30, r26
 7ee:	20 83       	st	Z, r18
 7f0:	80 e0       	ldi	r24, 0x00	; 0
 7f2:	08 95       	ret
 7f4:	8f ef       	ldi	r24, 0xFF	; 255
 7f6:	08 95       	ret
 7f8:	8f ef       	ldi	r24, 0xFF	; 255
 7fa:	08 95       	ret
 7fc:	8f ef       	ldi	r24, 0xFF	; 255
 7fe:	08 95       	ret

00000800 <TIMER_SOFTWARE_start_timer>:
 800:	cf 93       	push	r28
 802:	df 93       	push	r29
 804:	8b 30       	cpi	r24, 0x0B	; 11
 806:	91 05       	cpc	r25, r1
 808:	84 f5       	brge	.+96     	; 0x86a <TIMER_SOFTWARE_start_timer+0x6a>
 80a:	fc 01       	movw	r30, r24
 80c:	ee 0f       	add	r30, r30
 80e:	ff 1f       	adc	r31, r31
 810:	e8 0f       	add	r30, r24
 812:	f9 1f       	adc	r31, r25
 814:	ee 0f       	add	r30, r30
 816:	ff 1f       	adc	r31, r31
 818:	ee 0f       	add	r30, r30
 81a:	ff 1f       	adc	r31, r31
 81c:	eb 59       	subi	r30, 0x9B	; 155
 81e:	ff 4f       	sbci	r31, 0xFF	; 255
 820:	20 81       	ld	r18, Z
 822:	20 ff       	sbrs	r18, 0
 824:	24 c0       	rjmp	.+72     	; 0x86e <TIMER_SOFTWARE_start_timer+0x6e>
 826:	ec 01       	movw	r28, r24
 828:	0e 94 c9 03 	call	0x792	; 0x792 <TIMER_SOFTWARE_enable_timer>
 82c:	fe 01       	movw	r30, r28
 82e:	ee 0f       	add	r30, r30
 830:	ff 1f       	adc	r31, r31
 832:	ec 0f       	add	r30, r28
 834:	fd 1f       	adc	r31, r29
 836:	ee 0f       	add	r30, r30
 838:	ff 1f       	adc	r31, r31
 83a:	ee 0f       	add	r30, r30
 83c:	ff 1f       	adc	r31, r31
 83e:	eb 59       	subi	r30, 0x9B	; 155
 840:	ff 4f       	sbci	r31, 0xFF	; 255
 842:	80 81       	ld	r24, Z
 844:	81 ff       	sbrs	r24, 1
 846:	15 c0       	rjmp	.+42     	; 0x872 <TIMER_SOFTWARE_start_timer+0x72>
 848:	9e 01       	movw	r18, r28
 84a:	22 0f       	add	r18, r18
 84c:	33 1f       	adc	r19, r19
 84e:	f9 01       	movw	r30, r18
 850:	ec 0f       	add	r30, r28
 852:	fd 1f       	adc	r31, r29
 854:	ee 0f       	add	r30, r30
 856:	ff 1f       	adc	r31, r31
 858:	ee 0f       	add	r30, r30
 85a:	ff 1f       	adc	r31, r31
 85c:	eb 59       	subi	r30, 0x9B	; 155
 85e:	ff 4f       	sbci	r31, 0xFF	; 255
 860:	91 85       	ldd	r25, Z+9	; 0x09
 862:	91 60       	ori	r25, 0x01	; 1
 864:	91 87       	std	Z+9, r25	; 0x09
 866:	80 e0       	ldi	r24, 0x00	; 0
 868:	05 c0       	rjmp	.+10     	; 0x874 <TIMER_SOFTWARE_start_timer+0x74>
 86a:	8f ef       	ldi	r24, 0xFF	; 255
 86c:	03 c0       	rjmp	.+6      	; 0x874 <TIMER_SOFTWARE_start_timer+0x74>
 86e:	8f ef       	ldi	r24, 0xFF	; 255
 870:	01 c0       	rjmp	.+2      	; 0x874 <TIMER_SOFTWARE_start_timer+0x74>
 872:	8f ef       	ldi	r24, 0xFF	; 255
 874:	df 91       	pop	r29
 876:	cf 91       	pop	r28
 878:	08 95       	ret

0000087a <TIMER_SOFTWARE_set_callback>:
 87a:	8b 30       	cpi	r24, 0x0B	; 11
 87c:	91 05       	cpc	r25, r1
 87e:	ec f4       	brge	.+58     	; 0x8ba <TIMER_SOFTWARE_set_callback+0x40>
 880:	fc 01       	movw	r30, r24
 882:	ee 0f       	add	r30, r30
 884:	ff 1f       	adc	r31, r31
 886:	e8 0f       	add	r30, r24
 888:	f9 1f       	adc	r31, r25
 88a:	ee 0f       	add	r30, r30
 88c:	ff 1f       	adc	r31, r31
 88e:	ee 0f       	add	r30, r30
 890:	ff 1f       	adc	r31, r31
 892:	eb 59       	subi	r30, 0x9B	; 155
 894:	ff 4f       	sbci	r31, 0xFF	; 255
 896:	20 81       	ld	r18, Z
 898:	20 ff       	sbrs	r18, 0
 89a:	11 c0       	rjmp	.+34     	; 0x8be <TIMER_SOFTWARE_set_callback+0x44>
 89c:	fc 01       	movw	r30, r24
 89e:	ee 0f       	add	r30, r30
 8a0:	ff 1f       	adc	r31, r31
 8a2:	e8 0f       	add	r30, r24
 8a4:	f9 1f       	adc	r31, r25
 8a6:	ee 0f       	add	r30, r30
 8a8:	ff 1f       	adc	r31, r31
 8aa:	ee 0f       	add	r30, r30
 8ac:	ff 1f       	adc	r31, r31
 8ae:	eb 59       	subi	r30, 0x9B	; 155
 8b0:	ff 4f       	sbci	r31, 0xFF	; 255
 8b2:	73 87       	std	Z+11, r23	; 0x0b
 8b4:	62 87       	std	Z+10, r22	; 0x0a
 8b6:	80 e0       	ldi	r24, 0x00	; 0
 8b8:	08 95       	ret
 8ba:	8f ef       	ldi	r24, 0xFF	; 255
 8bc:	08 95       	ret
 8be:	8f ef       	ldi	r24, 0xFF	; 255
 8c0:	08 95       	ret

000008c2 <TIMER_SOFTWARE_interrupt_pending>:
//! \return \b 0 if no interrupt is pending 
//! \return \b >0 if an interrupt is pending
//*****************************************************************************
uint8_t TIMER_SOFTWARE_interrupt_pending(timer_software_handler_t timer_handler)
{
	return TIMER_INTERRUPT_PENDING(timer_handler);
 8c2:	fc 01       	movw	r30, r24
 8c4:	ee 0f       	add	r30, r30
 8c6:	ff 1f       	adc	r31, r31
 8c8:	e8 0f       	add	r30, r24
 8ca:	f9 1f       	adc	r31, r25
 8cc:	ee 0f       	add	r30, r30
 8ce:	ff 1f       	adc	r31, r31
 8d0:	ee 0f       	add	r30, r30
 8d2:	ff 1f       	adc	r31, r31
 8d4:	eb 59       	subi	r30, 0x9B	; 155
 8d6:	ff 4f       	sbci	r31, 0xFF	; 255
 8d8:	81 85       	ldd	r24, Z+9	; 0x09
}
 8da:	82 fb       	bst	r24, 2
 8dc:	88 27       	eor	r24, r24
 8de:	80 f9       	bld	r24, 0
 8e0:	08 95       	ret

000008e2 <TIMER_SOFTWARE_clear_interrupt>:
//! \return \b -1 for error 
//! \return \b 0 for success
//*****************************************************************************
void TIMER_SOFTWARE_clear_interrupt(timer_software_handler_t timer_handler)
{
	TIMER_CLR_INTERRUPT_FLAG(timer_handler);
 8e2:	fc 01       	movw	r30, r24
 8e4:	ee 0f       	add	r30, r30
 8e6:	ff 1f       	adc	r31, r31
 8e8:	df 01       	movw	r26, r30
 8ea:	a8 0f       	add	r26, r24
 8ec:	b9 1f       	adc	r27, r25
 8ee:	aa 0f       	add	r26, r26
 8f0:	bb 1f       	adc	r27, r27
 8f2:	aa 0f       	add	r26, r26
 8f4:	bb 1f       	adc	r27, r27
 8f6:	ab 59       	subi	r26, 0x9B	; 155
 8f8:	bf 4f       	sbci	r27, 0xFF	; 255
 8fa:	19 96       	adiw	r26, 0x09	; 9
 8fc:	2c 91       	ld	r18, X
 8fe:	19 97       	sbiw	r26, 0x09	; 9
 900:	2b 7f       	andi	r18, 0xFB	; 251
 902:	fd 01       	movw	r30, r26
 904:	21 87       	std	Z+9, r18	; 0x09
 906:	08 95       	ret

00000908 <_exit>:
 908:	f8 94       	cli

0000090a <__stop_program>:
 90a:	ff cf       	rjmp	.-2      	; 0x90a <__stop_program>
